; Function Attrs: nounwind uwtable
define i32 @FT_Get_MM_Var(ptr noundef %0, ptr noundef %1) local_unnamed_addr #0 {
  %.not = icmp eq ptr %1, null
  br i1 %.not, label %ft_face_get_mm_service.exit.thread, label %3

3:                                                ; preds = %2
  %.not.i = icmp eq ptr %0, null
  br i1 %.not.i, label %ft_face_get_mm_service.exit.thread, label %4

4:                                                ; preds = %3
  %5 = getelementptr inbounds i8, ptr %0, i64 16
  %6 = load i64, ptr %5, align 8
  %7 = and i64 %6, 256
  %.not24.i = icmp eq i64 %7, 0
  br i1 %.not24.i, label %ft_face_get_mm_service.exit.thread, label %8

8:                                                ; preds = %4
  %9 = getelementptr inbounds i8, ptr %0, i64 240
  %10 = load ptr, ptr %9, align 8
  %11 = getelementptr inbounds i8, ptr %10, i64 64
  %12 = load ptr, ptr %11, align 8
  %magicptr.i = ptrtoint ptr %12 to i64
  switch i64 %magicptr.i, label %.fold.split.i [
    i64 -2, label %ft_face_get_mm_service.exit.thread
    i64 0, label %13
  ]

13:                                               ; preds = %8
  %14 = getelementptr inbounds i8, ptr %0, i64 176
  %15 = load ptr, ptr %14, align 8
  %16 = load ptr, ptr %15, align 8
  %17 = getelementptr inbounds i8, ptr %16, i64 64
  %18 = load ptr, ptr %17, align 8
  %.not25.i = icmp eq ptr %18, null
  br i1 %.not25.i, label %21, label %19

19:                                               ; preds = %13
  %20 = tail call ptr %18(ptr noundef nonnull %15, ptr noundef nonnull @.str) #3
  %.pre.i = load ptr, ptr %9, align 8
  br label %21

21:                                               ; preds = %19, %13
  %22 = phi ptr [ %.pre.i, %19 ], [ %10, %13 ]
  %.0.i = phi ptr [ %20, %19 ], [ null, %13 ]
  %.not26.i = icmp eq ptr %.0.i, null
  %23 = select i1 %.not26.i, ptr inttoptr (i64 -2 to ptr), ptr %.0.i
  %24 = getelementptr inbounds i8, ptr %22, i64 64
  store ptr %23, ptr %24, align 8
  br label %.fold.split.i

.fold.split.i:                                    ; preds = %8, %21
  %.019.i = phi ptr [ %.0.i, %21 ], [ %12, %8 ]
  %.not27.i = icmp eq ptr %.019.i, null
  br i1 %.not27.i, label %ft_face_get_mm_service.exit.thread, label %ft_face_get_mm_service.exit

ft_face_get_mm_service.exit:                      ; preds = %.fold.split.i
  %25 = getelementptr inbounds i8, ptr %.019.i, i64 32
  %26 = load ptr, ptr %25, align 8
  %.not11 = icmp eq ptr %26, null
  br i1 %.not11, label %ft_face_get_mm_service.exit.thread, label %27

27:                                               ; preds = %ft_face_get_mm_service.exit
  %28 = tail call i32 %26(ptr noundef nonnull %0, ptr noundef nonnull %1) #3
  br label %ft_face_get_mm_service.exit.thread

ft_face_get_mm_service.exit.thread:               ; preds = %8, %.fold.split.i, %4, %3, %27, %ft_face_get_mm_service.exit, %2
  %.06 = phi i32 [ 6, %2 ], [ %28, %27 ], [ 6, %ft_face_get_mm_service.exit ], [ 6, %4 ], [ 35, %3 ], [ 6, %.fold.split.i ], [ 6, %8 ]
  ret i32 %.06
}